target datalayout = "e-m:e-p270:32:32-p271:32:32-p272:64:64-i64:64-i128:128-f80:128-n8:16:32:64-S128"
target triple = "x86_64-pc-linux-gnu"

%struct._zend_jit_globals = type { i8, i8, i8, i8, i32, ptr, i64, i64, i64, double, i64, i64, i64, i64, i64, i64, i64, i64, i64, i64, i64, i64, i64, i64, ptr, i8, ptr, ptr, [64 x ptr], [64 x i8], [64 x i8], i32, ptr }

@jit_globals = hidden global %struct._zend_jit_globals zeroinitializer, align 8
@zend_jit_vm_kind = internal global i32 0, align 4

; Function Attrs: nounwind uwtable
define internal i32 @zend_jit_hybrid_ret_trace_counter_stub(ptr noundef %0) #0 {
  %2 = alloca i32, align 4
  %3 = alloca ptr, align 8
  store ptr %0, ptr %3, align 8
  %4 = load i32, ptr @zend_jit_vm_kind, align 4
  %5 = icmp ne i32 %4, 4
  br i1 %5, label %9, label %6

6:                                                ; preds = %1
  %7 = load i64, ptr getelementptr inbounds (%struct._zend_jit_globals, ptr @jit_globals, i32 0, i32 15), align 8
  %8 = icmp ne i64 %7, 0
  br i1 %8, label %10, label %9

9:                                                ; preds = %6, %1
  store i32 0, ptr %2, align 4
  br label %19

10:                                               ; preds = %6
  %11 = load ptr, ptr %3, align 8
  %12 = load i64, ptr getelementptr inbounds (%struct._zend_jit_globals, ptr @jit_globals, i32 0, i32 15), align 8
  %13 = add nsw i64 32531, %12
  %14 = sub nsw i64 %13, 1
  %15 = load i64, ptr getelementptr inbounds (%struct._zend_jit_globals, ptr @jit_globals, i32 0, i32 15), align 8
  %16 = sdiv i64 %14, %15
  %17 = trunc i64 %16 to i32
  %18 = call i32 @_zend_jit_hybrid_trace_counter_stub(ptr noundef %11, i32 noundef %17)
  store i32 %18, ptr %2, align 4
  br label %19

19:                                               ; preds = %10, %9
  %20 = load i32, ptr %2, align 4
  ret i32 %20
}