; Function Attrs: nounwind uwtable
define internal noundef i32 @zend_jit_hybrid_ret_trace_counter_stub(ptr noundef %0) #0 {
  %2 = load i32, ptr @zend_jit_vm_kind, align 4
  %3 = icmp eq i32 %2, 4
  %4 = load i64, ptr getelementptr inbounds (%struct._zend_jit_globals, ptr @jit_globals, i64 0, i32 15), align 8
  %5 = icmp ne i64 %4, 0
  %or.cond = select i1 %3, i1 %5, i1 false
  br i1 %or.cond, label %6, label %10

6:                                                ; preds = %1
  %7 = add nsw i64 %4, 32530
  %8 = sdiv i64 %7, %4
  %9 = trunc i64 %8 to i32
  tail call fastcc void @_zend_jit_hybrid_trace_counter_stub(ptr noundef %0, i32 noundef %9)
  br label %10

10:                                               ; preds = %1, %6
  %.0 = phi i32 [ 1, %6 ], [ 0, %1 ]
  ret i32 %.0
}